target datalayout = "e-m:e-p270:32:32-p271:32:32-p272:64:64-i64:64-i128:128-f80:128-n8:16:32:64-S128"
target triple = "x86_64-pc-linux-gnu"

%struct._packet_info = type { ptr, ptr, i32, i32, %struct.nstime_t, %struct.nstime_t, %struct.nstime_t, i8, ptr, ptr, ptr, ptr, %struct._address, %struct._address, %struct._address, %struct._address, %struct._address, %struct._address, i32, ptr, i8, [3 x i8], %struct.anon, i32, i32, i32, i32, ptr, i8, ptr, ptr, i16, i16, i32, i32, i16, i32, i32, ptr, ptr, ptr, i8, i8, i16, i16, i16, i32, i16, i16, ptr, ptr, ptr, ptr, ptr, i32, i32 }
%struct.nstime_t = type { i64, i32 }
%struct._address = type { i32, i32, ptr, ptr }
%struct.anon = type { i8, [3 x i8] }
%struct._frame_data = type <{ i32, i32, i32, i32, i32, [4 x i8], i64, ptr, ptr, ptr, i8, i16, [5 x i8], %struct.nstime_t, %struct.nstime_t, i32, i32 }>

; Function Attrs: null_pointer_is_valid sspstrong uwtable
define internal void @conv_set_fid(ptr noundef %0, i32 noundef %1, ptr noundef %2, i64 noundef %3) #0 {
  %5 = alloca ptr, align 8
  %6 = alloca i32, align 4
  %7 = alloca ptr, align 8
  %8 = alloca i64, align 8
  %9 = alloca ptr, align 8
  %10 = alloca i32, align 4
  store ptr %0, ptr %5, align 8
  store i32 %1, ptr %6, align 4
  store ptr %2, ptr %7, align 8
  store i64 %3, ptr %8, align 8
  call void @llvm.lifetime.start.p0(i64 8, ptr %9) #7
  %11 = load ptr, ptr %5, align 8
  %12 = getelementptr inbounds nuw %struct._packet_info, ptr %11, i32 0, i32 8
  %13 = load ptr, ptr %12, align 8
  %14 = getelementptr inbounds nuw %struct._frame_data, ptr %13, i32 0, i32 11
  %15 = load i16, ptr %14, align 1
  %16 = lshr i16 %15, 3
  %17 = and i16 %16, 1
  %18 = zext i16 %17 to i32
  %19 = icmp ne i32 %18, 0
  br i1 %19, label %26, label %20

20:                                               ; preds = %4
  %21 = load i32, ptr %6, align 4
  %22 = icmp eq i32 %21, -1
  br i1 %22, label %26, label %23

23:                                               ; preds = %20
  %24 = load i64, ptr %8, align 8
  %25 = icmp eq i64 %24, 0
  br i1 %25, label %26, label %27

26:                                               ; preds = %23, %20, %4
  store i32 1, ptr %10, align 4
  br label %38

27:                                               ; preds = %23
  %28 = call ptr @wmem_file_scope()
  %29 = load i64, ptr %8, align 8
  %30 = call noalias ptr @wmem_alloc(ptr noundef %28, i64 noundef %29) #9
  store ptr %30, ptr %9, align 8
  %31 = load ptr, ptr %9, align 8
  %32 = load ptr, ptr %7, align 8
  %33 = load i64, ptr %8, align 8
  %34 = call i64 @g_strlcpy(ptr noundef %31, ptr noundef %32, i64 noundef %33)
  %35 = load ptr, ptr %5, align 8
  %36 = load i32, ptr %6, align 4
  %37 = load ptr, ptr %9, align 8
  call void @conv_set_fid_nocopy(ptr noundef %35, i32 noundef %36, ptr noundef %37)
  store i32 0, ptr %10, align 4
  br label %38

38:                                               ; preds = %27, %26
  call void @llvm.lifetime.end.p0(i64 8, ptr %9) #7
  %39 = load i32, ptr %10, align 4
  switch i32 %39, label %41 [
    i32 0, label %40
    i32 1, label %40
  ]

40:                                               ; preds = %38, %38
  ret void

41:                                               ; preds = %38
  unreachable
}