; Function Attrs: null_pointer_is_valid sspstrong uwtable
define internal fastcc void @conv_set_fid(ptr noundef %0, i32 noundef %1, ptr noundef %2, i64 noundef %3) unnamed_addr #0 {
  %5 = getelementptr inbounds nuw i8, ptr %0, i64 80
  %6 = load ptr, ptr %5, align 8
  %7 = getelementptr inbounds nuw i8, ptr %6, i64 57
  %8 = load i16, ptr %7, align 1
  %9 = and i16 %8, 8
  %10 = icmp ne i16 %9, 0
  %11 = icmp eq i32 %1, -1
  %or.cond = or i1 %11, %10
  %12 = icmp eq i64 %3, 0
  %or.cond3 = or i1 %12, %or.cond
  br i1 %or.cond3, label %17, label %13

13:                                               ; preds = %4
  %14 = tail call ptr @wmem_file_scope()
  %15 = tail call noalias ptr @wmem_alloc(ptr noundef %14, i64 noundef %3) #10
  %16 = tail call i64 @g_strlcpy(ptr noundef %15, ptr noundef %2, i64 noundef %3)
  tail call fastcc void @conv_set_fid_nocopy(ptr noundef %0, i32 noundef %1, ptr noundef %15)
  br label %17

17:                                               ; preds = %4, %13
  ret void
}